target datalayout = "e-m:e-p270:32:32-p271:32:32-p272:64:64-i64:64-i128:128-f80:128-n8:16:32:64-S128"
target triple = "x86_64-pc-linux-gnu"

%struct._lv_textarea_t = type { %struct._lv_obj_t, ptr, ptr, ptr, ptr, ptr, i32, i32, %struct.anon, i32, i32, i8 }
%struct._lv_obj_t = type { ptr, ptr, ptr, ptr, ptr, %struct.lv_area_t, i32, i16, i16 }
%struct.lv_area_t = type { i32, i32, i32, i32 }
%struct.anon = type { i32, i32, %struct.lv_area_t, i32, i8 }

@lv_text_get_encoded_length = external constant ptr, align 8
@lv_text_encoded_prev = external constant ptr, align 8

; Function Attrs: nounwind uwtable
define ptr @lv_textarea_get_text(ptr noundef %0) #0 {
  %2 = alloca ptr, align 8
  %3 = alloca ptr, align 8
  %4 = alloca ptr, align 8
  store ptr %0, ptr %2, align 8, !tbaa !8
  br label %5

5:                                                ; preds = %1
  %6 = load ptr, ptr %2, align 8, !tbaa !8
  %7 = icmp ne ptr %6, null
  br i1 %7, label %12, label %8

8:                                                ; preds = %5
  br label %9

9:                                                ; preds = %8
  br label %10

10:                                               ; preds = %9
  br label %11

11:                                               ; preds = %10, %11
  br label %11

12:                                               ; preds = %5
  br label %13

13:                                               ; preds = %12
  call void @llvm.lifetime.start.p0(i64 8, ptr %3) #6
  %14 = load ptr, ptr %2, align 8, !tbaa !8
  store ptr %14, ptr %3, align 8, !tbaa !10
  call void @llvm.lifetime.start.p0(i64 8, ptr %4) #6
  %15 = load ptr, ptr %3, align 8, !tbaa !10
  %16 = getelementptr inbounds nuw %struct._lv_textarea_t, ptr %15, i32 0, i32 11
  %17 = load i8, ptr %16, align 8
  %18 = lshr i8 %17, 2
  %19 = and i8 %18, 1
  %20 = zext i8 %19 to i32
  %21 = icmp eq i32 %20, 0
  br i1 %21, label %22, label %27

22:                                               ; preds = %13
  %23 = load ptr, ptr %3, align 8, !tbaa !10
  %24 = getelementptr inbounds nuw %struct._lv_textarea_t, ptr %23, i32 0, i32 1
  %25 = load ptr, ptr %24, align 8, !tbaa !28
  %26 = call ptr @lv_label_get_text(ptr noundef %25)
  store ptr %26, ptr %4, align 8, !tbaa !33
  br label %31

27:                                               ; preds = %13
  %28 = load ptr, ptr %3, align 8, !tbaa !10
  %29 = getelementptr inbounds nuw %struct._lv_textarea_t, ptr %28, i32 0, i32 3
  %30 = load ptr, ptr %29, align 8, !tbaa !12
  store ptr %30, ptr %4, align 8, !tbaa !33
  br label %31

31:                                               ; preds = %27, %22
  %32 = load ptr, ptr %4, align 8, !tbaa !33
  call void @llvm.lifetime.end.p0(i64 8, ptr %4) #6
  call void @llvm.lifetime.end.p0(i64 8, ptr %3) #6
  ret ptr %32
}

; Function Attrs: nounwind uwtable
define i32 @lv_textarea_get_current_char(ptr noundef %0) #0 {
  %2 = alloca i32, align 4
  %3 = alloca ptr, align 8
  %4 = alloca ptr, align 8
  %5 = alloca ptr, align 8
  %6 = alloca i32, align 4
  %7 = alloca i32, align 4
  store ptr %0, ptr %3, align 8, !tbaa !8
  br label %8

8:                                                ; preds = %1
  %9 = load ptr, ptr %3, align 8, !tbaa !8
  %10 = icmp ne ptr %9, null
  br i1 %10, label %15, label %11

11:                                               ; preds = %8
  br label %12

12:                                               ; preds = %11
  br label %13

13:                                               ; preds = %12
  br label %14

14:                                               ; preds = %13, %14
  br label %14

15:                                               ; preds = %8
  br label %16

16:                                               ; preds = %15
  call void @llvm.lifetime.start.p0(i64 8, ptr %4) #6
  %17 = load ptr, ptr %3, align 8, !tbaa !8
  %18 = call ptr @lv_textarea_get_text(ptr noundef %17)
  store ptr %18, ptr %4, align 8, !tbaa !33
  call void @llvm.lifetime.start.p0(i64 8, ptr %5) #6
  %19 = load ptr, ptr %3, align 8, !tbaa !8
  store ptr %19, ptr %5, align 8, !tbaa !10
  call void @llvm.lifetime.start.p0(i64 4, ptr %6) #6
  %20 = load ptr, ptr %5, align 8, !tbaa !10
  %21 = getelementptr inbounds nuw %struct._lv_textarea_t, ptr %20, i32 0, i32 8
  %22 = getelementptr inbounds nuw %struct.anon, ptr %21, i32 0, i32 1
  %23 = load i32, ptr %22, align 4, !tbaa !26
  store i32 %23, ptr %6, align 4, !tbaa !32
  %24 = load ptr, ptr @lv_text_get_encoded_length, align 8, !tbaa !34
  %25 = load ptr, ptr %4, align 8, !tbaa !33
  %26 = call i32 %24(ptr noundef %25)
  %27 = load i32, ptr %6, align 4, !tbaa !32
  %28 = icmp uge i32 %26, %27
  br i1 %28, label %29, label %36

29:                                               ; preds = %16
  %30 = load i32, ptr %6, align 4, !tbaa !32
  %31 = icmp ugt i32 %30, 0
  br i1 %31, label %32, label %36

32:                                               ; preds = %29
  %33 = load ptr, ptr @lv_text_encoded_prev, align 8, !tbaa !34
  %34 = load ptr, ptr %4, align 8, !tbaa !33
  %35 = call i32 %33(ptr noundef %34, ptr noundef %6)
  store i32 %35, ptr %2, align 4
  store i32 1, ptr %7, align 4
  br label %37

36:                                               ; preds = %29, %16
  store i32 0, ptr %2, align 4
  store i32 1, ptr %7, align 4
  br label %37

37:                                               ; preds = %36, %32
  call void @llvm.lifetime.end.p0(i64 4, ptr %6) #6
  call void @llvm.lifetime.end.p0(i64 8, ptr %5) #6
  call void @llvm.lifetime.end.p0(i64 8, ptr %4) #6
  %38 = load i32, ptr %2, align 4
  ret i32 %38
}