; Function Attrs: nounwind uwtable
define i32 @lv_textarea_get_current_char(ptr noundef readonly captures(address_is_null) %0) local_unnamed_addr #0 {
  %2 = alloca i32, align 4
  %.not = icmp eq ptr %0, null
  br i1 %.not, label %.preheader, label %3

.preheader:                                       ; preds = %1, %.preheader
  br label %.preheader

3:                                                ; preds = %1
  %4 = getelementptr inbounds nuw i8, ptr %0, i64 152
  %5 = load i8, ptr %4, align 8
  %6 = and i8 %5, 4
  %7 = icmp eq i8 %6, 0
  br i1 %7, label %8, label %12

8:                                                ; preds = %3
  %9 = getelementptr inbounds nuw i8, ptr %0, i64 64
  %10 = load ptr, ptr %9, align 8, !tbaa !22
  %11 = tail call ptr @lv_label_get_text(ptr noundef %10) #10
  br label %lv_textarea_get_text.exit

12:                                               ; preds = %3
  %13 = getelementptr inbounds nuw i8, ptr %0, i64 80
  %14 = load ptr, ptr %13, align 8, !tbaa !23
  br label %lv_textarea_get_text.exit

lv_textarea_get_text.exit:                        ; preds = %8, %12
  %.0.i = phi ptr [ %11, %8 ], [ %14, %12 ]
  call void @llvm.lifetime.start.p0(i64 4, ptr nonnull %2) #10
  %15 = getelementptr inbounds nuw i8, ptr %0, i64 116
  %16 = load i32, ptr %15, align 4, !tbaa !20
  store i32 %16, ptr %2, align 4, !tbaa !26
  %17 = load ptr, ptr @lv_text_get_encoded_length, align 8, !tbaa !57
  %18 = tail call i32 %17(ptr noundef %.0.i) #10
  %19 = add i32 %16, -1
  %or.cond = icmp ult i32 %19, %18
  br i1 %or.cond, label %20, label %23

20:                                               ; preds = %lv_textarea_get_text.exit
  %21 = load ptr, ptr @lv_text_encoded_prev, align 8, !tbaa !57
  %22 = call i32 %21(ptr noundef %.0.i, ptr noundef nonnull %2) #10
  br label %23

23:                                               ; preds = %lv_textarea_get_text.exit, %20
  %.0 = phi i32 [ %22, %20 ], [ 0, %lv_textarea_get_text.exit ]
  call void @llvm.lifetime.end.p0(i64 4, ptr nonnull %2) #10
  ret i32 %.0
}